target datalayout = "e-m:e-p270:32:32-p271:32:32-p272:64:64-i64:64-i128:128-f80:128-n8:16:32:64-S128"
target triple = "x86_64-pc-linux-gnu"

%"struct.Yosys::RTLIL::IdString" = type { i32 }
%"struct.Yosys::DriveChunkPort" = type <{ ptr, %"struct.Yosys::RTLIL::IdString", i32, i32, [4 x i8] }>

; Function Attrs: inlinehint mustprogress nounwind uwtable
define linkonce_odr noundef zeroext i1 @_ZNK5Yosys5RTLIL8IdStringneERKS1_(ptr noundef nonnull align 4 dereferenceable(4) %0, ptr noundef nonnull align 4 dereferenceable(4) %1) #5 comdat align 2 {
  %3 = alloca ptr, align 8
  %4 = alloca ptr, align 8
  store ptr %0, ptr %3, align 8, !tbaa !68
  store ptr %1, ptr %4, align 8, !tbaa !68
  %5 = load ptr, ptr %3, align 8
  %6 = getelementptr inbounds nuw %"struct.Yosys::RTLIL::IdString", ptr %5, i32 0, i32 0
  %7 = load i32, ptr %6, align 4, !tbaa !70
  %8 = load ptr, ptr %4, align 8, !tbaa !68
  %9 = getelementptr inbounds nuw %"struct.Yosys::RTLIL::IdString", ptr %8, i32 0, i32 0
  %10 = load i32, ptr %9, align 4, !tbaa !70
  %11 = icmp ne i32 %7, %10
  ret i1 %11
}

; Function Attrs: mustprogress uwtable
define noundef zeroext i1 @_ZN5Yosys14DriveChunkPort10try_appendERKS0_(ptr noundef nonnull align 8 dereferenceable(20) %0, ptr noundef nonnull align 8 dereferenceable(20) %1) #4 align 2 {
  %3 = alloca i1, align 1
  %4 = alloca ptr, align 8
  %5 = alloca ptr, align 8
  store ptr %0, ptr %4, align 8, !tbaa !55
  store ptr %1, ptr %5, align 8, !tbaa !55
  %6 = load ptr, ptr %4, align 8
  %7 = load ptr, ptr %5, align 8, !tbaa !55
  %8 = getelementptr inbounds nuw %"struct.Yosys::DriveChunkPort", ptr %7, i32 0, i32 0
  %9 = load ptr, ptr %8, align 8, !tbaa !63
  %10 = getelementptr inbounds nuw %"struct.Yosys::DriveChunkPort", ptr %6, i32 0, i32 0
  %11 = load ptr, ptr %10, align 8, !tbaa !63
  %12 = icmp ne ptr %9, %11
  br i1 %12, label %28, label %13

13:                                               ; preds = %2
  %14 = load ptr, ptr %5, align 8, !tbaa !55
  %15 = getelementptr inbounds nuw %"struct.Yosys::DriveChunkPort", ptr %14, i32 0, i32 1
  %16 = getelementptr inbounds nuw %"struct.Yosys::DriveChunkPort", ptr %6, i32 0, i32 1
  %17 = call noundef zeroext i1 @_ZNK5Yosys5RTLIL8IdStringneERKS1_(ptr noundef nonnull align 4 dereferenceable(4) %15, ptr noundef nonnull align 4 dereferenceable(4) %16)
  br i1 %17, label %28, label %18

18:                                               ; preds = %13
  %19 = load ptr, ptr %5, align 8, !tbaa !55
  %20 = getelementptr inbounds nuw %"struct.Yosys::DriveChunkPort", ptr %19, i32 0, i32 2
  %21 = load i32, ptr %20, align 4, !tbaa !66
  %22 = getelementptr inbounds nuw %"struct.Yosys::DriveChunkPort", ptr %6, i32 0, i32 2
  %23 = load i32, ptr %22, align 4, !tbaa !66
  %24 = getelementptr inbounds nuw %"struct.Yosys::DriveChunkPort", ptr %6, i32 0, i32 3
  %25 = load i32, ptr %24, align 8, !tbaa !67
  %26 = add nsw i32 %23, %25
  %27 = icmp ne i32 %21, %26
  br i1 %27, label %28, label %29

28:                                               ; preds = %18, %13, %2
  store i1 false, ptr %3, align 1
  br label %36

29:                                               ; preds = %18
  %30 = load ptr, ptr %5, align 8, !tbaa !55
  %31 = getelementptr inbounds nuw %"struct.Yosys::DriveChunkPort", ptr %30, i32 0, i32 3
  %32 = load i32, ptr %31, align 8, !tbaa !67
  %33 = getelementptr inbounds nuw %"struct.Yosys::DriveChunkPort", ptr %6, i32 0, i32 3
  %34 = load i32, ptr %33, align 8, !tbaa !67
  %35 = add nsw i32 %34, %32
  store i32 %35, ptr %33, align 8, !tbaa !67
  store i1 true, ptr %3, align 1
  br label %36

36:                                               ; preds = %29, %28
  %37 = load i1, ptr %3, align 1
  ret i1 %37
}