; Function Attrs: mustprogress nofree norecurse nosync nounwind willreturn memory(argmem: readwrite) uwtable
define noundef zeroext i1 @_ZN5Yosys14DriveChunkPort10try_appendERKS0_(ptr noundef nonnull align 8 captures(none) dereferenceable(20) %0, ptr noundef nonnull readonly align 8 captures(none) dereferenceable(20) %1) local_unnamed_addr #9 align 2 {
  %3 = load ptr, ptr %1, align 8, !tbaa !61
  %4 = load ptr, ptr %0, align 8, !tbaa !61
  %.not = icmp eq ptr %3, %4
  br i1 %.not, label %5, label %22

5:                                                ; preds = %2
  %6 = getelementptr inbounds nuw i8, ptr %1, i64 8
  %7 = getelementptr inbounds nuw i8, ptr %0, i64 8
  %8 = load i32, ptr %6, align 8, !tbaa !39
  %9 = load i32, ptr %7, align 8, !tbaa !39
  %.not7 = icmp eq i32 %8, %9
  br i1 %.not7, label %10, label %22

10:                                               ; preds = %5
  %11 = getelementptr inbounds nuw i8, ptr %1, i64 12
  %12 = load i32, ptr %11, align 4, !tbaa !66
  %13 = getelementptr inbounds nuw i8, ptr %0, i64 12
  %14 = load i32, ptr %13, align 4, !tbaa !66
  %15 = getelementptr inbounds nuw i8, ptr %0, i64 16
  %16 = load i32, ptr %15, align 8, !tbaa !78
  %17 = add nsw i32 %16, %14
  %.not6 = icmp eq i32 %12, %17
  br i1 %.not6, label %18, label %22

18:                                               ; preds = %10
  %19 = getelementptr inbounds nuw i8, ptr %1, i64 16
  %20 = load i32, ptr %19, align 8, !tbaa !78
  %21 = add nsw i32 %20, %16
  store i32 %21, ptr %15, align 8, !tbaa !78
  br label %22

22:                                               ; preds = %2, %5, %10, %18
  %.0 = phi i1 [ true, %18 ], [ false, %10 ], [ false, %5 ], [ false, %2 ]
  ret i1 %.0
}